target datalayout = "e-m:e-p270:32:32-p271:32:32-p272:64:64-i64:64-i128:128-f80:128-n8:16:32:64-S128"
target triple = "x86_64-pc-linux-gnu"

%"class.llvm::FoldingSetBase" = type { ptr, i32, i32 }

@.str = private unnamed_addr constant [18 x i8] c"Allocation failed\00", align 1

; Function Attrs: mustprogress nounwind uwtable
define linkonce_odr hidden noundef nonnull ptr @_ZN4llvm11safe_mallocEm(i64 noundef %0) #0 comdat {
  %2 = alloca ptr, align 8
  %3 = alloca i64, align 8
  %4 = alloca ptr, align 8
  store i64 %0, ptr %3, align 8
  %5 = load i64, ptr %3, align 8
  %6 = call noalias ptr @malloc(i64 noundef %5) #14
  store ptr %6, ptr %4, align 8
  %7 = load ptr, ptr %4, align 8
  %8 = icmp eq ptr %7, null
  br i1 %8, label %9, label %15

9:                                                ; preds = %1
  %10 = load i64, ptr %3, align 8
  %11 = icmp eq i64 %10, 0
  br i1 %11, label %12, label %14

12:                                               ; preds = %9
  %13 = call noundef nonnull ptr @_ZN4llvm11safe_mallocEm(i64 noundef 1)
  store ptr %13, ptr %2, align 8
  br label %17

14:                                               ; preds = %9
  call void @_ZN4llvm22report_bad_alloc_errorEPKcb(ptr noundef @.str, i1 noundef zeroext true) #13
  unreachable

15:                                               ; preds = %1
  %16 = load ptr, ptr %4, align 8
  store ptr %16, ptr %2, align 8
  br label %17

17:                                               ; preds = %15, %12
  %18 = load ptr, ptr %2, align 8
  ret ptr %18
}

; Function Attrs: mustprogress nounwind uwtable
define linkonce_odr hidden noundef nonnull ptr @_ZN4llvm11safe_callocEmm(i64 noundef %0, i64 noundef %1) #0 comdat {
  %3 = alloca ptr, align 8
  %4 = alloca i64, align 8
  %5 = alloca i64, align 8
  %6 = alloca ptr, align 8
  store i64 %0, ptr %4, align 8
  store i64 %1, ptr %5, align 8
  %7 = load i64, ptr %4, align 8
  %8 = load i64, ptr %5, align 8
  %9 = call noalias ptr @calloc(i64 noundef %7, i64 noundef %8) #12
  store ptr %9, ptr %6, align 8
  %10 = load ptr, ptr %6, align 8
  %11 = icmp eq ptr %10, null
  br i1 %11, label %12, label %21

12:                                               ; preds = %2
  %13 = load i64, ptr %4, align 8
  %14 = icmp eq i64 %13, 0
  br i1 %14, label %18, label %15

15:                                               ; preds = %12
  %16 = load i64, ptr %5, align 8
  %17 = icmp eq i64 %16, 0
  br i1 %17, label %18, label %20

18:                                               ; preds = %15, %12
  %19 = call noundef nonnull ptr @_ZN4llvm11safe_mallocEm(i64 noundef 1)
  store ptr %19, ptr %3, align 8
  br label %23

20:                                               ; preds = %15
  call void @_ZN4llvm22report_bad_alloc_errorEPKcb(ptr noundef @.str, i1 noundef zeroext true) #13
  unreachable

21:                                               ; preds = %2
  %22 = load ptr, ptr %6, align 8
  store ptr %22, ptr %3, align 8
  br label %23

23:                                               ; preds = %21, %18
  %24 = load ptr, ptr %3, align 8
  ret ptr %24
}

; Function Attrs: mustprogress nounwind uwtable
define internal noundef ptr @_ZL15AllocateBucketsj(i32 noundef %0) #0 {
  %2 = alloca i32, align 4
  %3 = alloca ptr, align 8
  store i32 %0, ptr %2, align 4
  %4 = load i32, ptr %2, align 4
  %5 = add i32 %4, 1
  %6 = zext i32 %5 to i64
  %7 = call noundef nonnull ptr @_ZN4llvm11safe_callocEmm(i64 noundef %6, i64 noundef 8)
  store ptr %7, ptr %3, align 8
  %8 = load ptr, ptr %3, align 8
  %9 = load i32, ptr %2, align 4
  %10 = zext i32 %9 to i64
  %11 = getelementptr inbounds ptr, ptr %8, i64 %10
  store ptr inttoptr (i64 -1 to ptr), ptr %11, align 8
  %12 = load ptr, ptr %3, align 8
  ret ptr %12
}

; Function Attrs: mustprogress nounwind uwtable
define dso_local void @_ZN4llvm14FoldingSetBaseC2Ej(ptr noundef nonnull align 8 dereferenceable(16) %0, i32 noundef %1) unnamed_addr #0 align 2 {
  %3 = alloca ptr, align 8
  %4 = alloca i32, align 4
  store ptr %0, ptr %3, align 8
  store i32 %1, ptr %4, align 4
  %5 = load ptr, ptr %3, align 8
  %6 = load i32, ptr %4, align 4
  %7 = shl i32 1, %6
  %8 = getelementptr inbounds nuw %"class.llvm::FoldingSetBase", ptr %5, i32 0, i32 1
  store i32 %7, ptr %8, align 8
  %9 = getelementptr inbounds nuw %"class.llvm::FoldingSetBase", ptr %5, i32 0, i32 1
  %10 = load i32, ptr %9, align 8
  %11 = call noundef ptr @_ZL15AllocateBucketsj(i32 noundef %10)
  %12 = getelementptr inbounds nuw %"class.llvm::FoldingSetBase", ptr %5, i32 0, i32 0
  store ptr %11, ptr %12, align 8
  %13 = getelementptr inbounds nuw %"class.llvm::FoldingSetBase", ptr %5, i32 0, i32 2
  store i32 0, ptr %13, align 4
  ret void
}