; Function Attrs: mustprogress nounwind uwtable
define dso_local void @_ZN4llvm14FoldingSetBaseC2Ej(ptr nocapture noundef nonnull writeonly align 8 dereferenceable(16) %0, i32 noundef %1) unnamed_addr #2 align 2 {
  %3 = shl nuw i32 1, %1
  %4 = getelementptr inbounds nuw i8, ptr %0, i64 8
  store i32 %3, ptr %4, align 8
  %5 = add nuw i32 %3, 1
  %6 = zext i32 %5 to i64
  %7 = tail call noalias ptr @calloc(i64 noundef %6, i64 noundef 8) #22
  %8 = icmp eq ptr %7, null
  br i1 %8, label %9, label %_ZL15AllocateBucketsj.exit

9:                                                ; preds = %2
  tail call void @_ZN4llvm22report_bad_alloc_errorEPKcb(ptr noundef nonnull @.str, i1 noundef zeroext true) #23
  unreachable

_ZL15AllocateBucketsj.exit:                       ; preds = %2
  %10 = zext i32 %3 to i64
  %11 = getelementptr inbounds ptr, ptr %7, i64 %10
  store ptr inttoptr (i64 -1 to ptr), ptr %11, align 8
  store ptr %7, ptr %0, align 8
  %12 = getelementptr inbounds nuw i8, ptr %0, i64 12
  store i32 0, ptr %12, align 4
  ret void
}